; Function Attrs: mustprogress nounwind uwtable
define hidden void @_ZN14duckdb_mbedtls14MbedTlsWrapper9SHA1StateD2Ev(ptr noundef nonnull readonly align 8 captures(none) dereferenceable(8) %0) unnamed_addr #9 align 2 personality ptr @__gxx_personality_v0 {
  %2 = load ptr, ptr %0, align 8, !tbaa !20
  invoke void @mbedtls_sha1_free(ptr noundef %2)
          to label %3 unwind label %7

3:                                                ; preds = %1
  %4 = icmp eq ptr %2, null
  br i1 %4, label %6, label %5

5:                                                ; preds = %3
  tail call void @_ZdlPv(ptr noundef nonnull %2) #21
  br label %6

6:                                                ; preds = %5, %3
  ret void

7:                                                ; preds = %1
  %8 = landingpad { ptr, i32 }
          catch ptr null
  %9 = extractvalue { ptr, i32 } %8, 0
  tail call void @__clang_call_terminate(ptr %9) #23
  unreachable
}